target datalayout = "e-m:e-p270:32:32-p271:32:32-p272:64:64-i64:64-i128:128-f80:128-n8:16:32:64-S128"
target triple = "x86_64-pc-linux-gnu"

%struct.gres_device_t = type { i32, i32, %struct.gres_device_id_t, i32, ptr, ptr }
%struct.gres_device_id_t = type { i32, i32, i32 }

; Function Attrs: nounwind uwtable
define internal void @_gres_device_pack(ptr noundef %0, i16 noundef zeroext %1, ptr noundef %2) #0 {
  %4 = alloca ptr, align 8
  %5 = alloca i16, align 2
  %6 = alloca ptr, align 8
  %7 = alloca ptr, align 8
  %8 = alloca i32, align 4
  %9 = alloca i32, align 4
  store ptr %0, ptr %4, align 8
  store i16 %1, ptr %5, align 2
  store ptr %2, ptr %6, align 8
  call void @llvm.lifetime.start.p0(i64 8, ptr %7) #11
  %10 = load ptr, ptr %4, align 8
  store ptr %10, ptr %7, align 8
  %11 = load ptr, ptr %7, align 8
  %12 = getelementptr inbounds nuw %struct.gres_device_t, ptr %11, i32 0, i32 0
  %13 = load i32, ptr %12, align 8
  %14 = load ptr, ptr %6, align 8
  call void @pack32(i32 noundef %13, ptr noundef %14)
  %15 = load ptr, ptr %7, align 8
  %16 = getelementptr inbounds nuw %struct.gres_device_t, ptr %15, i32 0, i32 3
  %17 = load i32, ptr %16, align 4
  %18 = load ptr, ptr %6, align 8
  call void @pack32(i32 noundef %17, ptr noundef %18)
  %19 = load ptr, ptr %7, align 8
  %20 = getelementptr inbounds nuw %struct.gres_device_t, ptr %19, i32 0, i32 2
  %21 = getelementptr inbounds nuw %struct.gres_device_id_t, ptr %20, i32 0, i32 2
  %22 = load i32, ptr %21, align 8
  %23 = load ptr, ptr %6, align 8
  call void @pack32(i32 noundef %22, ptr noundef %23)
  %24 = load ptr, ptr %7, align 8
  %25 = getelementptr inbounds nuw %struct.gres_device_t, ptr %24, i32 0, i32 2
  %26 = getelementptr inbounds nuw %struct.gres_device_id_t, ptr %25, i32 0, i32 0
  %27 = load i32, ptr %26, align 8
  %28 = load ptr, ptr %6, align 8
  call void @pack32(i32 noundef %27, ptr noundef %28)
  %29 = load ptr, ptr %7, align 8
  %30 = getelementptr inbounds nuw %struct.gres_device_t, ptr %29, i32 0, i32 2
  %31 = getelementptr inbounds nuw %struct.gres_device_id_t, ptr %30, i32 0, i32 1
  %32 = load i32, ptr %31, align 4
  %33 = load ptr, ptr %6, align 8
  call void @pack32(i32 noundef %32, ptr noundef %33)
  br label %34

34:                                               ; preds = %3
  call void @llvm.lifetime.start.p0(i64 4, ptr %8) #11
  store i32 0, ptr %8, align 4
  %35 = load ptr, ptr %7, align 8
  %36 = getelementptr inbounds nuw %struct.gres_device_t, ptr %35, i32 0, i32 4
  %37 = load ptr, ptr %36, align 8
  %38 = icmp ne ptr %37, null
  br i1 %38, label %39, label %46

39:                                               ; preds = %34
  %40 = load ptr, ptr %7, align 8
  %41 = getelementptr inbounds nuw %struct.gres_device_t, ptr %40, i32 0, i32 4
  %42 = load ptr, ptr %41, align 8
  %43 = call i64 @strlen(ptr noundef %42) #14
  %44 = trunc i64 %43 to i32
  %45 = add i32 %44, 1
  store i32 %45, ptr %8, align 4
  br label %46

46:                                               ; preds = %39, %34
  %47 = load ptr, ptr %7, align 8
  %48 = getelementptr inbounds nuw %struct.gres_device_t, ptr %47, i32 0, i32 4
  %49 = load ptr, ptr %48, align 8
  %50 = load i32, ptr %8, align 4
  %51 = load ptr, ptr %6, align 8
  call void @packmem(ptr noundef %49, i32 noundef %50, ptr noundef %51)
  call void @llvm.lifetime.end.p0(i64 4, ptr %8) #11
  br label %52

52:                                               ; preds = %46
  br label %53

53:                                               ; preds = %52
  br label %54

54:                                               ; preds = %53
  call void @llvm.lifetime.start.p0(i64 4, ptr %9) #11
  store i32 0, ptr %9, align 4
  %55 = load ptr, ptr %7, align 8
  %56 = getelementptr inbounds nuw %struct.gres_device_t, ptr %55, i32 0, i32 5
  %57 = load ptr, ptr %56, align 8
  %58 = icmp ne ptr %57, null
  br i1 %58, label %59, label %66

59:                                               ; preds = %54
  %60 = load ptr, ptr %7, align 8
  %61 = getelementptr inbounds nuw %struct.gres_device_t, ptr %60, i32 0, i32 5
  %62 = load ptr, ptr %61, align 8
  %63 = call i64 @strlen(ptr noundef %62) #14
  %64 = trunc i64 %63 to i32
  %65 = add i32 %64, 1
  store i32 %65, ptr %9, align 4
  br label %66

66:                                               ; preds = %59, %54
  %67 = load ptr, ptr %7, align 8
  %68 = getelementptr inbounds nuw %struct.gres_device_t, ptr %67, i32 0, i32 5
  %69 = load ptr, ptr %68, align 8
  %70 = load i32, ptr %9, align 4
  %71 = load ptr, ptr %6, align 8
  call void @packmem(ptr noundef %69, i32 noundef %70, ptr noundef %71)
  call void @llvm.lifetime.end.p0(i64 4, ptr %9) #11
  br label %72

72:                                               ; preds = %66
  br label %73

73:                                               ; preds = %72
  call void @llvm.lifetime.end.p0(i64 8, ptr %7) #11
  ret void
}