; Function Attrs: nounwind uwtable
define internal void @_gres_device_pack(ptr noundef readonly captures(none) %0, i16 zeroext %1, ptr noundef %2) #2 {
  %4 = load i32, ptr %0, align 8
  tail call void @pack32(i32 noundef %4, ptr noundef %2) #28
  %5 = getelementptr inbounds nuw i8, ptr %0, i64 20
  %6 = load i32, ptr %5, align 4
  tail call void @pack32(i32 noundef %6, ptr noundef %2) #28
  %7 = getelementptr inbounds nuw i8, ptr %0, i64 8
  %8 = getelementptr inbounds nuw i8, ptr %0, i64 16
  %9 = load i32, ptr %8, align 8
  tail call void @pack32(i32 noundef %9, ptr noundef %2) #28
  %10 = load i32, ptr %7, align 8
  tail call void @pack32(i32 noundef %10, ptr noundef %2) #28
  %11 = getelementptr inbounds nuw i8, ptr %0, i64 12
  %12 = load i32, ptr %11, align 4
  tail call void @pack32(i32 noundef %12, ptr noundef %2) #28
  %13 = getelementptr inbounds nuw i8, ptr %0, i64 24
  %14 = load ptr, ptr %13, align 8
  %.not = icmp eq ptr %14, null
  br i1 %.not, label %19, label %15

15:                                               ; preds = %3
  %16 = tail call i64 @strlen(ptr noundef nonnull dereferenceable(1) %14) #31
  %17 = trunc i64 %16 to i32
  %18 = add i32 %17, 1
  br label %19

19:                                               ; preds = %15, %3
  %.020 = phi i32 [ %18, %15 ], [ 0, %3 ]
  tail call void @packmem(ptr noundef %14, i32 noundef %.020, ptr noundef %2) #28
  %20 = getelementptr inbounds nuw i8, ptr %0, i64 32
  %21 = load ptr, ptr %20, align 8
  %.not23 = icmp eq ptr %21, null
  br i1 %.not23, label %26, label %22

22:                                               ; preds = %19
  %23 = tail call i64 @strlen(ptr noundef nonnull dereferenceable(1) %21) #31
  %24 = trunc i64 %23 to i32
  %25 = add i32 %24, 1
  br label %26

26:                                               ; preds = %22, %19
  %.0 = phi i32 [ %25, %22 ], [ 0, %19 ]
  tail call void @packmem(ptr noundef %21, i32 noundef %.0, ptr noundef %2) #28
  ret void
}